target datalayout = "e-m:e-p270:32:32-p271:32:32-p272:64:64-i64:64-i128:128-f80:128-n8:16:32:64-S128"
target triple = "x86_64-pc-linux-gnu"

%"class.casadi::NlImporter" = type { ptr, i8, i8, %"class.std::basic_ifstream", %"class.std::vector.4", i64, i64, i64, i64, i64, i64, i64, i64, i64, i64, i64, i64, i64, %"class.casadi::MX" }
%"class.std::basic_ifstream" = type { %"class.std::basic_istream.base", %"class.std::basic_filebuf", %"class.std::basic_ios" }
%"class.std::basic_istream.base" = type { ptr, i64 }
%"class.std::basic_filebuf" = type { %"class.std::basic_streambuf", %union.pthread_mutex_t, %"class.std::__basic_file", i32, %struct.__mbstate_t, %struct.__mbstate_t, %struct.__mbstate_t, ptr, i64, i8, i8, i8, i8, ptr, ptr, i8, ptr, ptr, i64, ptr, ptr }
%"class.std::basic_streambuf" = type { ptr, ptr, ptr, ptr, ptr, ptr, ptr, %"class.std::locale" }
%"class.std::locale" = type { ptr }
%union.pthread_mutex_t = type { %struct.__pthread_mutex_s }
%struct.__pthread_mutex_s = type { i32, i32, i32, i32, i32, i16, i16, %struct.__pthread_internal_list }
%struct.__pthread_internal_list = type { ptr, ptr }
%"class.std::__basic_file" = type <{ ptr, i8, [7 x i8] }>
%struct.__mbstate_t = type { i32, %union.anon.3 }
%union.anon.3 = type { i32 }
%"class.std::basic_ios" = type { %"class.std::ios_base", ptr, i8, i8, ptr, ptr, ptr, ptr }
%"class.std::ios_base" = type { ptr, i64, i64, i32, i32, i32, ptr, %"struct.std::ios_base::_Words", [8 x %"struct.std::ios_base::_Words"], i32, ptr, %"class.std::locale" }
%"struct.std::ios_base::_Words" = type { ptr, i64 }
%"class.std::vector.4" = type { %"struct.std::_Vector_base.5" }
%"struct.std::_Vector_base.5" = type { %"struct.std::_Vector_base<casadi::MX, std::allocator<casadi::MX>>::_Vector_impl" }
%"struct.std::_Vector_base<casadi::MX, std::allocator<casadi::MX>>::_Vector_impl" = type { %"struct.std::_Vector_base<casadi::MX, std::allocator<casadi::MX>>::_Vector_impl_data" }
%"struct.std::_Vector_base<casadi::MX, std::allocator<casadi::MX>>::_Vector_impl_data" = type { ptr, ptr, ptr }
%"class.casadi::MX" = type { %"class.casadi::SharedObject" }
%"class.casadi::SharedObject" = type { ptr }

; Function Attrs: mustprogress uwtable
define noundef signext i8 @_ZN6casadi10NlImporter9read_charEv(ptr noundef nonnull align 8 dereferenceable(672) %0) #4 align 2 {
  %2 = alloca ptr, align 8
  %3 = alloca i8, align 1
  store ptr %0, ptr %2, align 8
  %4 = load ptr, ptr %2, align 8
  %5 = getelementptr inbounds %"class.casadi::NlImporter", ptr %4, i32 0, i32 2
  %6 = load i8, ptr %5, align 1
  %7 = trunc i8 %6 to i1
  br i1 %7, label %8, label %11

8:                                                ; preds = %1
  %9 = getelementptr inbounds %"class.casadi::NlImporter", ptr %4, i32 0, i32 3
  %10 = call noundef nonnull align 8 dereferenceable(16) ptr @_ZNSi4readEPcl(ptr noundef nonnull align 8 dereferenceable(16) %9, ptr noundef %3, i64 noundef 1)
  br label %14

11:                                               ; preds = %1
  %12 = getelementptr inbounds %"class.casadi::NlImporter", ptr %4, i32 0, i32 3
  %13 = call noundef nonnull align 8 dereferenceable(16) ptr @_ZStrsIcSt11char_traitsIcEERSt13basic_istreamIT_T0_ES6_RS3_(ptr noundef nonnull align 8 dereferenceable(16) %12, ptr noundef nonnull align 1 dereferenceable(1) %3)
  br label %14

14:                                               ; preds = %11, %8
  %15 = load i8, ptr %3, align 1
  ret i8 %15
}